target datalayout = "e-m:e-p270:32:32-p271:32:32-p272:64:64-i64:64-i128:128-f80:128-n8:16:32:64-S128"
target triple = "x86_64-pc-linux-gnu"

%struct.DdManager = type { %struct.DdNode, ptr, ptr, ptr, ptr, ptr, ptr, ptr, i32, i32, double, double, double, i32, i32, i32, i32, i32, i32, ptr, ptr, %struct.DdSubtable, i32, i32, i32, i32, i32, i32, i32, double, i32, i32, i32, ptr, i64, double, i32, ptr, ptr, ptr, ptr, ptr, ptr, ptr, i32, ptr, ptr, ptr, ptr, ptr, ptr, i32, i32, i32, double, i32, i32, i32, i32, double, double, i32, i32, i32, i32, i32, i32, i32, i32, i32, ptr, ptr, i32, i32, i32, i32, i32, i32, ptr, ptr, ptr, ptr, ptr, ptr, ptr, ptr, i32, i64, i64, i64, i32, i64, i64, double, double, double, double, double, double, i32, ptr, ptr, i64 }
%struct.DdNode = type { i32, i32, ptr, %union.anon, i64 }
%union.anon = type { %struct.DdChildren }
%struct.DdChildren = type { ptr, ptr }
%struct.DdSubtable = type { ptr, i32, i32, i32, i32, i32, i32, i32, i32, i32, i32, i32 }

@numvars = internal global i32 0, align 4
@storedd = internal global ptr null, align 8
@computed = internal global ptr null, align 8
@result = internal global i32 0, align 4

; Function Attrs: nounwind uwtable
define internal i32 @sift_up(ptr noundef %0, i32 noundef %1, i32 noundef %2) #0 {
  %4 = alloca i32, align 4
  %5 = alloca ptr, align 8
  %6 = alloca i32, align 4
  %7 = alloca i32, align 4
  %8 = alloca i32, align 4
  %9 = alloca i32, align 4
  %10 = alloca i32, align 4
  store ptr %0, ptr %5, align 8, !tbaa !3
  store i32 %1, ptr %6, align 4, !tbaa !8
  store i32 %2, ptr %7, align 4, !tbaa !8
  call void @llvm.lifetime.start.p0(i64 4, ptr %8) #5
  call void @llvm.lifetime.start.p0(i64 4, ptr %9) #5
  %11 = load ptr, ptr %5, align 8, !tbaa !3
  %12 = load i32, ptr %6, align 4, !tbaa !8
  %13 = call i32 @cuddNextLow(ptr noundef %11, i32 noundef %12)
  store i32 %13, ptr %8, align 4, !tbaa !8
  br label %14

14:                                               ; preds = %26, %3
  %15 = load i32, ptr %8, align 4, !tbaa !8
  %16 = load i32, ptr %7, align 4, !tbaa !8
  %17 = icmp sge i32 %15, %16
  br i1 %17, label %18, label %31

18:                                               ; preds = %14
  %19 = load ptr, ptr %5, align 8, !tbaa !3
  %20 = load i32, ptr %8, align 4, !tbaa !8
  %21 = load i32, ptr %6, align 4, !tbaa !8
  %22 = call i32 @cuddSwapInPlace(ptr noundef %19, i32 noundef %20, i32 noundef %21)
  store i32 %22, ptr %9, align 4, !tbaa !8
  %23 = load i32, ptr %9, align 4, !tbaa !8
  %24 = icmp eq i32 %23, 0
  br i1 %24, label %25, label %26

25:                                               ; preds = %18
  store i32 0, ptr %4, align 4
  store i32 1, ptr %10, align 4
  br label %32

26:                                               ; preds = %18
  %27 = load i32, ptr %8, align 4, !tbaa !8
  store i32 %27, ptr %6, align 4, !tbaa !8
  %28 = load ptr, ptr %5, align 8, !tbaa !3
  %29 = load i32, ptr %6, align 4, !tbaa !8
  %30 = call i32 @cuddNextLow(ptr noundef %28, i32 noundef %29)
  store i32 %30, ptr %8, align 4, !tbaa !8
  br label %14, !llvm.loop !63

31:                                               ; preds = %14
  store i32 1, ptr %4, align 4
  store i32 1, ptr %10, align 4
  br label %32

32:                                               ; preds = %31, %25
  call void @llvm.lifetime.end.p0(i64 4, ptr %9) #5
  call void @llvm.lifetime.end.p0(i64 4, ptr %8) #5
  %33 = load i32, ptr %4, align 4
  ret i32 %33
}

; Function Attrs: nounwind uwtable
define internal i32 @build_dd(ptr noundef %0, i32 noundef %1, i32 noundef %2, i32 noundef %3) #0 {
  %5 = alloca i32, align 4
  %6 = alloca ptr, align 8
  %7 = alloca i32, align 4
  %8 = alloca i32, align 4
  %9 = alloca i32, align 4
  %10 = alloca i32, align 4
  %11 = alloca i32, align 4
  %12 = alloca i32, align 4
  %13 = alloca i32, align 4
  %14 = alloca i32, align 4
  %15 = alloca i32, align 4
  %16 = alloca i32, align 4
  store ptr %0, ptr %6, align 8, !tbaa !3
  store i32 %1, ptr %7, align 4, !tbaa !8
  store i32 %2, ptr %8, align 4, !tbaa !8
  store i32 %3, ptr %9, align 4, !tbaa !8
  call void @llvm.lifetime.start.p0(i64 4, ptr %10) #5
  call void @llvm.lifetime.start.p0(i64 4, ptr %11) #5
  call void @llvm.lifetime.start.p0(i64 4, ptr %12) #5
  call void @llvm.lifetime.start.p0(i64 4, ptr %13) #5
  call void @llvm.lifetime.start.p0(i64 4, ptr %14) #5
  call void @llvm.lifetime.start.p0(i64 4, ptr %15) #5
  %17 = load ptr, ptr @computed, align 8, !tbaa !31
  %18 = icmp ne ptr %17, null
  br i1 %18, label %19, label %51

19:                                               ; preds = %4
  %20 = load ptr, ptr @computed, align 8, !tbaa !31
  %21 = load ptr, ptr @storedd, align 8, !tbaa !27
  %22 = load i32, ptr %7, align 4, !tbaa !8
  %23 = load i32, ptr @numvars, align 4, !tbaa !8
  %24 = add nsw i32 %23, 1
  %25 = mul nsw i32 %22, %24
  %26 = add nsw i32 %25, 0
  %27 = sext i32 %26 to i64
  %28 = getelementptr inbounds i32, ptr %21, i64 %27
  %29 = call i32 @st__lookup_int(ptr noundef %20, ptr noundef %28, ptr noundef %13)
  %30 = icmp ne i32 %29, 0
  br i1 %30, label %31, label %51

31:                                               ; preds = %19
  %32 = load ptr, ptr @storedd, align 8, !tbaa !27
  %33 = load i32, ptr %13, align 4, !tbaa !8
  %34 = load i32, ptr @numvars, align 4, !tbaa !8
  %35 = add nsw i32 %34, 1
  %36 = mul nsw i32 %33, %35
  %37 = load i32, ptr @numvars, align 4, !tbaa !8
  %38 = add nsw i32 %36, %37
  %39 = sext i32 %38 to i64
  %40 = getelementptr inbounds i32, ptr %32, i64 %39
  %41 = load i32, ptr %40, align 4, !tbaa !8
  %42 = load ptr, ptr @storedd, align 8, !tbaa !27
  %43 = load i32, ptr %7, align 4, !tbaa !8
  %44 = load i32, ptr @numvars, align 4, !tbaa !8
  %45 = add nsw i32 %44, 1
  %46 = mul nsw i32 %43, %45
  %47 = load i32, ptr @numvars, align 4, !tbaa !8
  %48 = add nsw i32 %46, %47
  %49 = sext i32 %48 to i64
  %50 = getelementptr inbounds i32, ptr %42, i64 %49
  store i32 %41, ptr %50, align 4, !tbaa !8
  store i32 1, ptr %5, align 4
  store i32 1, ptr %16, align 4
  br label %161

51:                                               ; preds = %19, %4
  %52 = load ptr, ptr @storedd, align 8, !tbaa !27
  %53 = load i32, ptr @numvars, align 4, !tbaa !8
  %54 = add nsw i32 %53, 1
  %55 = mul nsw i32 0, %54
  %56 = load i32, ptr @numvars, align 4, !tbaa !8
  %57 = add nsw i32 %55, %56
  %58 = sext i32 %57 to i64
  %59 = getelementptr inbounds i32, ptr %52, i64 %58
  %60 = load i32, ptr %59, align 4, !tbaa !8
  %61 = mul nsw i32 20, %60
  store i32 %61, ptr %14, align 4, !tbaa !8
  store i32 0, ptr %11, align 4, !tbaa !8
  br label %62

62:                                               ; preds = %106, %51
  %63 = load i32, ptr %11, align 4, !tbaa !8
  %64 = load i32, ptr @numvars, align 4, !tbaa !8
  %65 = icmp slt i32 %63, %64
  br i1 %65, label %66, label %109

66:                                               ; preds = %62
  %67 = load ptr, ptr @storedd, align 8, !tbaa !27
  %68 = load i32, ptr %7, align 4, !tbaa !8
  %69 = load i32, ptr @numvars, align 4, !tbaa !8
  %70 = add nsw i32 %69, 1
  %71 = mul nsw i32 %68, %70
  %72 = load i32, ptr %11, align 4, !tbaa !8
  %73 = add nsw i32 %71, %72
  %74 = sext i32 %73 to i64
  %75 = getelementptr inbounds i32, ptr %67, i64 %74
  %76 = load i32, ptr %75, align 4, !tbaa !8
  store i32 %76, ptr %10, align 4, !tbaa !8
  %77 = load ptr, ptr %6, align 8, !tbaa !3
  %78 = getelementptr inbounds nuw %struct.DdManager, ptr %77, i32 0, i32 37
  %79 = load ptr, ptr %78, align 8, !tbaa !51
  %80 = load i32, ptr %10, align 4, !tbaa !8
  %81 = sext i32 %80 to i64
  %82 = getelementptr inbounds i32, ptr %79, i64 %81
  %83 = load i32, ptr %82, align 4, !tbaa !8
  store i32 %83, ptr %12, align 4, !tbaa !8
  %84 = load ptr, ptr %6, align 8, !tbaa !3
  %85 = load i32, ptr %12, align 4, !tbaa !8
  %86 = load i32, ptr %11, align 4, !tbaa !8
  %87 = load i32, ptr %8, align 4, !tbaa !8
  %88 = add nsw i32 %86, %87
  %89 = call i32 @sift_up(ptr noundef %84, i32 noundef %85, i32 noundef %88)
  store i32 %89, ptr @result, align 4, !tbaa !8
  %90 = load i32, ptr @result, align 4, !tbaa !8
  %91 = icmp ne i32 %90, 0
  br i1 %91, label %93, label %92

92:                                               ; preds = %66
  store i32 0, ptr %5, align 4
  store i32 1, ptr %16, align 4
  br label %161

93:                                               ; preds = %66
  %94 = load ptr, ptr %6, align 8, !tbaa !3
  %95 = getelementptr inbounds nuw %struct.DdManager, ptr %94, i32 0, i32 23
  %96 = load i32, ptr %95, align 4, !tbaa !35
  %97 = load ptr, ptr %6, align 8, !tbaa !3
  %98 = getelementptr inbounds nuw %struct.DdManager, ptr %97, i32 0, i32 36
  %99 = load i32, ptr %98, align 8, !tbaa !36
  %100 = sub i32 %96, %99
  store i32 %100, ptr %15, align 4, !tbaa !8
  %101 = load i32, ptr %15, align 4, !tbaa !8
  %102 = load i32, ptr %14, align 4, !tbaa !8
  %103 = icmp sgt i32 %101, %102
  br i1 %103, label %104, label %105

104:                                              ; preds = %93
  br label %109

105:                                              ; preds = %93
  br label %106

106:                                              ; preds = %105
  %107 = load i32, ptr %11, align 4, !tbaa !8
  %108 = add nsw i32 %107, 1
  store i32 %108, ptr %11, align 4, !tbaa !8
  br label %62, !llvm.loop !52

109:                                              ; preds = %104, %62
  %110 = load ptr, ptr %6, align 8, !tbaa !3
  %111 = load i32, ptr %8, align 4, !tbaa !8
  %112 = load i32, ptr %9, align 4, !tbaa !8
  %113 = call i32 @cuddSifting(ptr noundef %110, i32 noundef %111, i32 noundef %112)
  store i32 %113, ptr @result, align 4, !tbaa !8
  %114 = load i32, ptr @result, align 4, !tbaa !8
  %115 = icmp ne i32 %114, 0
  br i1 %115, label %117, label %116

116:                                              ; preds = %109
  store i32 0, ptr %5, align 4
  store i32 1, ptr %16, align 4
  br label %161

117:                                              ; preds = %109
  store i32 0, ptr %11, align 4, !tbaa !8
  br label %118

118:                                              ; preds = %141, %117
  %119 = load i32, ptr %11, align 4, !tbaa !8
  %120 = load i32, ptr @numvars, align 4, !tbaa !8
  %121 = icmp slt i32 %119, %120
  br i1 %121, label %122, label %144

122:                                              ; preds = %118
  %123 = load ptr, ptr %6, align 8, !tbaa !3
  %124 = getelementptr inbounds nuw %struct.DdManager, ptr %123, i32 0, i32 39
  %125 = load ptr, ptr %124, align 8, !tbaa !33
  %126 = load i32, ptr %8, align 4, !tbaa !8
  %127 = load i32, ptr %11, align 4, !tbaa !8
  %128 = add nsw i32 %126, %127
  %129 = sext i32 %128 to i64
  %130 = getelementptr inbounds i32, ptr %125, i64 %129
  %131 = load i32, ptr %130, align 4, !tbaa !8
  %132 = load ptr, ptr @storedd, align 8, !tbaa !27
  %133 = load i32, ptr %7, align 4, !tbaa !8
  %134 = load i32, ptr @numvars, align 4, !tbaa !8
  %135 = add nsw i32 %134, 1
  %136 = mul nsw i32 %133, %135
  %137 = load i32, ptr %11, align 4, !tbaa !8
  %138 = add nsw i32 %136, %137
  %139 = sext i32 %138 to i64
  %140 = getelementptr inbounds i32, ptr %132, i64 %139
  store i32 %131, ptr %140, align 4, !tbaa !8
  br label %141

141:                                              ; preds = %122
  %142 = load i32, ptr %11, align 4, !tbaa !8
  %143 = add nsw i32 %142, 1
  store i32 %143, ptr %11, align 4, !tbaa !8
  br label %118, !llvm.loop !53

144:                                              ; preds = %118
  %145 = load ptr, ptr %6, align 8, !tbaa !3
  %146 = getelementptr inbounds nuw %struct.DdManager, ptr %145, i32 0, i32 23
  %147 = load i32, ptr %146, align 4, !tbaa !35
  %148 = load ptr, ptr %6, align 8, !tbaa !3
  %149 = getelementptr inbounds nuw %struct.DdManager, ptr %148, i32 0, i32 36
  %150 = load i32, ptr %149, align 8, !tbaa !36
  %151 = sub i32 %147, %150
  %152 = load ptr, ptr @storedd, align 8, !tbaa !27
  %153 = load i32, ptr %7, align 4, !tbaa !8
  %154 = load i32, ptr @numvars, align 4, !tbaa !8
  %155 = add nsw i32 %154, 1
  %156 = mul nsw i32 %153, %155
  %157 = load i32, ptr @numvars, align 4, !tbaa !8
  %158 = add nsw i32 %156, %157
  %159 = sext i32 %158 to i64
  %160 = getelementptr inbounds i32, ptr %152, i64 %159
  store i32 %151, ptr %160, align 4, !tbaa !8
  store i32 1, ptr %5, align 4
  store i32 1, ptr %16, align 4
  br label %161

161:                                              ; preds = %144, %116, %92, %31
  call void @llvm.lifetime.end.p0(i64 4, ptr %15) #5
  call void @llvm.lifetime.end.p0(i64 4, ptr %14) #5
  call void @llvm.lifetime.end.p0(i64 4, ptr %13) #5
  call void @llvm.lifetime.end.p0(i64 4, ptr %12) #5
  call void @llvm.lifetime.end.p0(i64 4, ptr %11) #5
  call void @llvm.lifetime.end.p0(i64 4, ptr %10) #5
  %162 = load i32, ptr %5, align 4
  ret i32 %162
}