; Function Attrs: nounwind uwtable
define internal fastcc range(i32 0, 2) i32 @build_dd(ptr noundef %0, i32 noundef %1, i32 noundef %2, i32 noundef %3) unnamed_addr #0 {
  %5 = alloca i32, align 4
  call void @llvm.lifetime.start.p0(i64 4, ptr nonnull %5) #9
  %6 = load ptr, ptr @computed, align 8, !tbaa !27
  %.not = icmp eq ptr %6, null
  br i1 %.not, label %27, label %7

7:                                                ; preds = %4
  %8 = load ptr, ptr @storedd, align 8, !tbaa !25
  %9 = load i32, ptr @numvars, align 4, !tbaa !3
  %10 = add nsw i32 %9, 1
  %11 = mul nsw i32 %10, %1
  %12 = sext i32 %11 to i64
  %13 = getelementptr inbounds i32, ptr %8, i64 %12
  %14 = call i32 @st__lookup_int(ptr noundef nonnull %6, ptr noundef %13, ptr noundef nonnull %5) #9
  %.not34 = icmp eq i32 %14, 0
  br i1 %.not34, label %27, label %15

15:                                               ; preds = %7
  %16 = load ptr, ptr @storedd, align 8, !tbaa !25
  %17 = load i32, ptr %5, align 4, !tbaa !3
  %18 = load i32, ptr @numvars, align 4, !tbaa !3
  %19 = add nsw i32 %18, 1
  %20 = mul nsw i32 %19, %17
  %21 = add nsw i32 %20, %18
  %22 = sext i32 %21 to i64
  %23 = getelementptr inbounds i32, ptr %16, i64 %22
  %24 = load i32, ptr %23, align 4, !tbaa !3
  %25 = mul nsw i32 %19, %1
  %26 = add nsw i32 %25, %18
  br label %sift_up.exit.sink.split

27:                                               ; preds = %7, %4
  %28 = load ptr, ptr @storedd, align 8, !tbaa !25
  %29 = load i32, ptr @numvars, align 4, !tbaa !3
  %30 = sext i32 %29 to i64
  %31 = getelementptr inbounds i32, ptr %28, i64 %30
  %32 = load i32, ptr %31, align 4, !tbaa !3
  %33 = mul nsw i32 %32, 20
  %34 = icmp sgt i32 %29, 0
  br i1 %34, label %.lr.ph, label %._crit_edge

.lr.ph:                                           ; preds = %27
  %35 = getelementptr inbounds nuw i8, ptr %0, i64 312
  %36 = getelementptr inbounds nuw i8, ptr %0, i64 228
  %37 = getelementptr inbounds nuw i8, ptr %0, i64 304
  br label %42

38:                                               ; preds = %.loopexit
  %39 = add nuw nsw i32 %.02939, 1
  %40 = load i32, ptr @numvars, align 4, !tbaa !3
  %41 = icmp slt i32 %39, %40
  br i1 %41, label %42, label %._crit_edge, !llvm.loop !58

42:                                               ; preds = %.lr.ph, %38
  %43 = phi i32 [ %29, %.lr.ph ], [ %40, %38 ]
  %.02939 = phi i32 [ 0, %.lr.ph ], [ %39, %38 ]
  %44 = load ptr, ptr @storedd, align 8, !tbaa !25
  %45 = add nsw i32 %43, 1
  %46 = mul nsw i32 %45, %1
  %47 = add nsw i32 %46, %.02939
  %48 = sext i32 %47 to i64
  %49 = getelementptr inbounds i32, ptr %44, i64 %48
  %50 = load i32, ptr %49, align 4, !tbaa !3
  %51 = load ptr, ptr %35, align 8, !tbaa !59
  %52 = sext i32 %50 to i64
  %53 = getelementptr inbounds i32, ptr %51, i64 %52
  %54 = load i32, ptr %53, align 4, !tbaa !3
  %55 = add nsw i32 %.02939, %2
  %56 = call i32 @cuddNextLow(ptr noundef %0, i32 noundef %54) #9
  %.not13.i = icmp slt i32 %56, %55
  br i1 %.not13.i, label %.loopexit, label %.lr.ph.i

.lr.ph.i:                                         ; preds = %42, %59
  %.01115.i = phi i32 [ %60, %59 ], [ %56, %42 ]
  %.01214.i = phi i32 [ %.01115.i, %59 ], [ %54, %42 ]
  %57 = call i32 @cuddSwapInPlace(ptr noundef %0, i32 noundef %.01115.i, i32 noundef %.01214.i) #9
  %58 = icmp eq i32 %57, 0
  br i1 %58, label %sift_up.exit, label %59

59:                                               ; preds = %.lr.ph.i
  %60 = call i32 @cuddNextLow(ptr noundef %0, i32 noundef %.01115.i) #9
  %.not.i = icmp slt i32 %60, %55
  br i1 %.not.i, label %.loopexit, label %.lr.ph.i, !llvm.loop !60

.loopexit:                                        ; preds = %59, %42
  %61 = load i32, ptr %36, align 4, !tbaa !32
  %62 = load i32, ptr %37, align 8, !tbaa !33
  %63 = sub i32 %61, %62
  %64 = icmp sgt i32 %63, %33
  br i1 %64, label %._crit_edge, label %38

._crit_edge:                                      ; preds = %38, %.loopexit, %27
  %65 = call i32 @cuddSifting(ptr noundef %0, i32 noundef %2, i32 noundef %3) #9
  %.not36 = icmp eq i32 %65, 0
  br i1 %.not36, label %sift_up.exit, label %.preheader

.preheader:                                       ; preds = %._crit_edge
  %66 = load i32, ptr @numvars, align 4, !tbaa !3
  %67 = icmp sgt i32 %66, 0
  %.pre = load ptr, ptr @storedd, align 8, !tbaa !25
  br i1 %67, label %.lr.ph42, label %.preheader.._crit_edge43_crit_edge

.preheader.._crit_edge43_crit_edge:               ; preds = %.preheader
  %.pre46 = add nsw i32 %66, 1
  %.pre47 = mul nsw i32 %.pre46, %1
  br label %._crit_edge43

.lr.ph42:                                         ; preds = %.preheader
  %68 = getelementptr inbounds nuw i8, ptr %0, i64 328
  %69 = load ptr, ptr %68, align 8, !tbaa !29
  %70 = add nuw nsw i32 %66, 1
  %71 = mul nsw i32 %70, %1
  %72 = sext i32 %2 to i64
  %73 = sext i32 %71 to i64
  %wide.trip.count = zext nneg i32 %66 to i64
  %invariant.gep = getelementptr i32, ptr %69, i64 %72
  %invariant.gep49 = getelementptr i32, ptr %.pre, i64 %73
  br label %74

74:                                               ; preds = %.lr.ph42, %74
  %indvars.iv = phi i64 [ 0, %.lr.ph42 ], [ %indvars.iv.next, %74 ]
  %gep = getelementptr i32, ptr %invariant.gep, i64 %indvars.iv
  %75 = load i32, ptr %gep, align 4, !tbaa !3
  %gep50 = getelementptr i32, ptr %invariant.gep49, i64 %indvars.iv
  store i32 %75, ptr %gep50, align 4, !tbaa !3
  %indvars.iv.next = add nuw nsw i64 %indvars.iv, 1
  %exitcond.not = icmp eq i64 %indvars.iv.next, %wide.trip.count
  br i1 %exitcond.not, label %._crit_edge43, label %74, !llvm.loop !61

._crit_edge43:                                    ; preds = %74, %.preheader.._crit_edge43_crit_edge
  %.pre-phi48 = phi i32 [ %.pre47, %.preheader.._crit_edge43_crit_edge ], [ %71, %74 ]
  %76 = getelementptr inbounds nuw i8, ptr %0, i64 228
  %77 = load i32, ptr %76, align 4, !tbaa !32
  %78 = getelementptr inbounds nuw i8, ptr %0, i64 304
  %79 = load i32, ptr %78, align 8, !tbaa !33
  %80 = sub i32 %77, %79
  %81 = add nsw i32 %.pre-phi48, %66
  br label %sift_up.exit.sink.split

sift_up.exit.sink.split:                          ; preds = %15, %._crit_edge43
  %.sink53 = phi i32 [ %81, %._crit_edge43 ], [ %26, %15 ]
  %.pre.sink = phi ptr [ %.pre, %._crit_edge43 ], [ %16, %15 ]
  %.sink = phi i32 [ %80, %._crit_edge43 ], [ %24, %15 ]
  %82 = sext i32 %.sink53 to i64
  %83 = getelementptr inbounds i32, ptr %.pre.sink, i64 %82
  store i32 %.sink, ptr %83, align 4, !tbaa !3
  br label %sift_up.exit

sift_up.exit:                                     ; preds = %.lr.ph.i, %sift_up.exit.sink.split, %._crit_edge
  %.0 = phi i32 [ 0, %._crit_edge ], [ 1, %sift_up.exit.sink.split ], [ 0, %.lr.ph.i ]
  call void @llvm.lifetime.end.p0(i64 4, ptr nonnull %5) #9
  ret i32 %.0
}